target datalayout = "e-m:e-p270:32:32-p271:32:32-p272:64:64-i64:64-i128:128-f80:128-n8:16:32:64-S128"
target triple = "x86_64-pc-linux-gnu"

%struct.StateVars = type { i32, i32, i32, i32, i8, i64 }

; Function Attrs: nounwind uwtable
define internal i32 @jpeg2000_bitbuf_refill_backwards(ptr noundef %0, ptr noundef %1) #0 {
  %3 = alloca i32, align 4
  %4 = alloca ptr, align 8
  %5 = alloca ptr, align 8
  %6 = alloca i64, align 8
  %7 = alloca i32, align 4
  %8 = alloca i32, align 4
  store ptr %0, ptr %4, align 8, !tbaa !47
  store ptr %1, ptr %5, align 8, !tbaa !20
  call void @llvm.lifetime.start.p0(i64 8, ptr %6) #10
  store i64 0, ptr %6, align 8, !tbaa !64
  call void @llvm.lifetime.start.p0(i64 4, ptr %7) #10
  store i32 32, ptr %7, align 4, !tbaa !15
  %9 = load ptr, ptr %5, align 8, !tbaa !20
  %10 = load ptr, ptr %4, align 8, !tbaa !47
  %11 = getelementptr inbounds nuw %struct.StateVars, ptr %10, i32 0, i32 0
  %12 = load i32, ptr %11, align 8, !tbaa !54
  %13 = add nsw i32 %12, 1
  %14 = sext i32 %13 to i64
  %15 = getelementptr inbounds i8, ptr %9, i64 %14
  %16 = load i8, ptr %15, align 1, !tbaa !17
  %17 = zext i8 %16 to i32
  %18 = load ptr, ptr %4, align 8, !tbaa !47
  %19 = getelementptr inbounds nuw %struct.StateVars, ptr %18, i32 0, i32 3
  store i32 %17, ptr %19, align 4, !tbaa !55
  %20 = load ptr, ptr %4, align 8, !tbaa !47
  %21 = getelementptr inbounds nuw %struct.StateVars, ptr %20, i32 0, i32 4
  %22 = load i8, ptr %21, align 8, !tbaa !49
  %23 = zext i8 %22 to i32
  %24 = icmp sge i32 %23, 32
  br i1 %24, label %25, label %26

25:                                               ; preds = %2
  store i32 0, ptr %3, align 4
  store i32 1, ptr %8, align 4
  br label %216

26:                                               ; preds = %2
  %27 = load ptr, ptr %4, align 8, !tbaa !47
  %28 = getelementptr inbounds nuw %struct.StateVars, ptr %27, i32 0, i32 0
  %29 = load i32, ptr %28, align 8, !tbaa !54
  %30 = icmp sge i32 %29, 3
  br i1 %30, label %31, label %87

31:                                               ; preds = %26
  %32 = load ptr, ptr %5, align 8, !tbaa !20
  %33 = load ptr, ptr %4, align 8, !tbaa !47
  %34 = getelementptr inbounds nuw %struct.StateVars, ptr %33, i32 0, i32 0
  %35 = load i32, ptr %34, align 8, !tbaa !54
  %36 = sub nsw i32 %35, 3
  %37 = sext i32 %36 to i64
  %38 = getelementptr inbounds i8, ptr %32, i64 %37
  %39 = load i8, ptr %38, align 1, !tbaa !17
  %40 = zext i8 %39 to i64
  store i64 %40, ptr %6, align 8, !tbaa !64
  %41 = load i64, ptr %6, align 8, !tbaa !64
  %42 = shl i64 %41, 8
  %43 = load ptr, ptr %5, align 8, !tbaa !20
  %44 = load ptr, ptr %4, align 8, !tbaa !47
  %45 = getelementptr inbounds nuw %struct.StateVars, ptr %44, i32 0, i32 0
  %46 = load i32, ptr %45, align 8, !tbaa !54
  %47 = sub nsw i32 %46, 2
  %48 = sext i32 %47 to i64
  %49 = getelementptr inbounds i8, ptr %43, i64 %48
  %50 = load i8, ptr %49, align 1, !tbaa !17
  %51 = zext i8 %50 to i64
  %52 = or i64 %42, %51
  store i64 %52, ptr %6, align 8, !tbaa !64
  %53 = load i64, ptr %6, align 8, !tbaa !64
  %54 = shl i64 %53, 8
  %55 = load ptr, ptr %5, align 8, !tbaa !20
  %56 = load ptr, ptr %4, align 8, !tbaa !47
  %57 = getelementptr inbounds nuw %struct.StateVars, ptr %56, i32 0, i32 0
  %58 = load i32, ptr %57, align 8, !tbaa !54
  %59 = sub nsw i32 %58, 1
  %60 = sext i32 %59 to i64
  %61 = getelementptr inbounds i8, ptr %55, i64 %60
  %62 = load i8, ptr %61, align 1, !tbaa !17
  %63 = zext i8 %62 to i64
  %64 = or i64 %54, %63
  store i64 %64, ptr %6, align 8, !tbaa !64
  %65 = load i64, ptr %6, align 8, !tbaa !64
  %66 = shl i64 %65, 8
  %67 = load ptr, ptr %5, align 8, !tbaa !20
  %68 = load ptr, ptr %4, align 8, !tbaa !47
  %69 = getelementptr inbounds nuw %struct.StateVars, ptr %68, i32 0, i32 0
  %70 = load i32, ptr %69, align 8, !tbaa !54
  %71 = sext i32 %70 to i64
  %72 = getelementptr inbounds i8, ptr %67, i64 %71
  %73 = load i8, ptr %72, align 1, !tbaa !17
  %74 = zext i8 %73 to i64
  %75 = or i64 %66, %74
  store i64 %75, ptr %6, align 8, !tbaa !64
  %76 = load i64, ptr %6, align 8, !tbaa !64
  %77 = shl i64 %76, 8
  %78 = load ptr, ptr %4, align 8, !tbaa !47
  %79 = getelementptr inbounds nuw %struct.StateVars, ptr %78, i32 0, i32 3
  %80 = load i32, ptr %79, align 4, !tbaa !55
  %81 = zext i32 %80 to i64
  %82 = or i64 %77, %81
  store i64 %82, ptr %6, align 8, !tbaa !64
  %83 = load ptr, ptr %4, align 8, !tbaa !47
  %84 = getelementptr inbounds nuw %struct.StateVars, ptr %83, i32 0, i32 0
  %85 = load i32, ptr %84, align 8, !tbaa !54
  %86 = sub nsw i32 %85, 4
  store i32 %86, ptr %84, align 8, !tbaa !54
  br label %147

87:                                               ; preds = %26
  %88 = load ptr, ptr %4, align 8, !tbaa !47
  %89 = getelementptr inbounds nuw %struct.StateVars, ptr %88, i32 0, i32 0
  %90 = load i32, ptr %89, align 8, !tbaa !54
  %91 = icmp sge i32 %90, 2
  br i1 %91, label %92, label %102

92:                                               ; preds = %87
  %93 = load ptr, ptr %5, align 8, !tbaa !20
  %94 = load ptr, ptr %4, align 8, !tbaa !47
  %95 = getelementptr inbounds nuw %struct.StateVars, ptr %94, i32 0, i32 0
  %96 = load i32, ptr %95, align 8, !tbaa !54
  %97 = sub nsw i32 %96, 2
  %98 = sext i32 %97 to i64
  %99 = getelementptr inbounds i8, ptr %93, i64 %98
  %100 = load i8, ptr %99, align 1, !tbaa !17
  %101 = zext i8 %100 to i64
  store i64 %101, ptr %6, align 8, !tbaa !64
  br label %102

102:                                              ; preds = %92, %87
  %103 = load ptr, ptr %4, align 8, !tbaa !47
  %104 = getelementptr inbounds nuw %struct.StateVars, ptr %103, i32 0, i32 0
  %105 = load i32, ptr %104, align 8, !tbaa !54
  %106 = icmp sge i32 %105, 1
  br i1 %106, label %107, label %120

107:                                              ; preds = %102
  %108 = load i64, ptr %6, align 8, !tbaa !64
  %109 = shl i64 %108, 8
  %110 = load ptr, ptr %5, align 8, !tbaa !20
  %111 = load ptr, ptr %4, align 8, !tbaa !47
  %112 = getelementptr inbounds nuw %struct.StateVars, ptr %111, i32 0, i32 0
  %113 = load i32, ptr %112, align 8, !tbaa !54
  %114 = sub nsw i32 %113, 1
  %115 = sext i32 %114 to i64
  %116 = getelementptr inbounds i8, ptr %110, i64 %115
  %117 = load i8, ptr %116, align 1, !tbaa !17
  %118 = zext i8 %117 to i64
  %119 = or i64 %109, %118
  store i64 %119, ptr %6, align 8, !tbaa !64
  br label %120

120:                                              ; preds = %107, %102
  %121 = load ptr, ptr %4, align 8, !tbaa !47
  %122 = getelementptr inbounds nuw %struct.StateVars, ptr %121, i32 0, i32 0
  %123 = load i32, ptr %122, align 8, !tbaa !54
  %124 = icmp sge i32 %123, 0
  br i1 %124, label %125, label %137

125:                                              ; preds = %120
  %126 = load i64, ptr %6, align 8, !tbaa !64
  %127 = shl i64 %126, 8
  %128 = load ptr, ptr %5, align 8, !tbaa !20
  %129 = load ptr, ptr %4, align 8, !tbaa !47
  %130 = getelementptr inbounds nuw %struct.StateVars, ptr %129, i32 0, i32 0
  %131 = load i32, ptr %130, align 8, !tbaa !54
  %132 = sext i32 %131 to i64
  %133 = getelementptr inbounds i8, ptr %128, i64 %132
  %134 = load i8, ptr %133, align 1, !tbaa !17
  %135 = zext i8 %134 to i64
  %136 = or i64 %127, %135
  store i64 %136, ptr %6, align 8, !tbaa !64
  br label %137

137:                                              ; preds = %125, %120
  %138 = load ptr, ptr %4, align 8, !tbaa !47
  %139 = getelementptr inbounds nuw %struct.StateVars, ptr %138, i32 0, i32 0
  store i32 0, ptr %139, align 8, !tbaa !54
  %140 = load i64, ptr %6, align 8, !tbaa !64
  %141 = shl i64 %140, 8
  %142 = load ptr, ptr %4, align 8, !tbaa !47
  %143 = getelementptr inbounds nuw %struct.StateVars, ptr %142, i32 0, i32 3
  %144 = load i32, ptr %143, align 4, !tbaa !55
  %145 = zext i32 %144 to i64
  %146 = or i64 %141, %145
  store i64 %146, ptr %6, align 8, !tbaa !64
  br label %147

147:                                              ; preds = %137, %31
  %148 = load i64, ptr %6, align 8, !tbaa !64
  %149 = and i64 %148, 549739036672
  %150 = icmp ugt i64 %149, 547859988480
  br i1 %150, label %151, label %156

151:                                              ; preds = %147
  %152 = load i64, ptr %6, align 8, !tbaa !64
  %153 = and i64 %152, 549755813887
  store i64 %153, ptr %6, align 8, !tbaa !64
  %154 = load i32, ptr %7, align 4, !tbaa !15
  %155 = add i32 %154, -1
  store i32 %155, ptr %7, align 4, !tbaa !15
  br label %156

156:                                              ; preds = %151, %147
  %157 = load i64, ptr %6, align 8, !tbaa !64
  %158 = and i64 %157, 2147418112
  %159 = icmp ugt i64 %158, 2140078080
  br i1 %159, label %160, label %169

160:                                              ; preds = %156
  %161 = load i64, ptr %6, align 8, !tbaa !64
  %162 = and i64 %161, 2147483647
  %163 = load i64, ptr %6, align 8, !tbaa !64
  %164 = and i64 %163, 1095216660480
  %165 = lshr i64 %164, 1
  %166 = add i64 %162, %165
  store i64 %166, ptr %6, align 8, !tbaa !64
  %167 = load i32, ptr %7, align 4, !tbaa !15
  %168 = add i32 %167, -1
  store i32 %168, ptr %7, align 4, !tbaa !15
  br label %169

169:                                              ; preds = %160, %156
  %170 = load i64, ptr %6, align 8, !tbaa !64
  %171 = and i64 %170, 8388352
  %172 = icmp ugt i64 %171, 8359680
  br i1 %172, label %173, label %182

173:                                              ; preds = %169
  %174 = load i64, ptr %6, align 8, !tbaa !64
  %175 = and i64 %174, 8388607
  %176 = load i64, ptr %6, align 8, !tbaa !64
  %177 = and i64 %176, 1099494850560
  %178 = lshr i64 %177, 1
  %179 = add i64 %175, %178
  store i64 %179, ptr %6, align 8, !tbaa !64
  %180 = load i32, ptr %7, align 4, !tbaa !15
  %181 = add i32 %180, -1
  store i32 %181, ptr %7, align 4, !tbaa !15
  br label %182

182:                                              ; preds = %173, %169
  %183 = load i64, ptr %6, align 8, !tbaa !64
  %184 = and i64 %183, 32767
  %185 = icmp ugt i64 %184, 32655
  br i1 %185, label %186, label %195

186:                                              ; preds = %182
  %187 = load i64, ptr %6, align 8, !tbaa !64
  %188 = and i64 %187, 32767
  %189 = load i64, ptr %6, align 8, !tbaa !64
  %190 = and i64 %189, 1099511562240
  %191 = lshr i64 %190, 1
  %192 = add i64 %188, %191
  store i64 %192, ptr %6, align 8, !tbaa !64
  %193 = load i32, ptr %7, align 4, !tbaa !15
  %194 = add i32 %193, -1
  store i32 %194, ptr %7, align 4, !tbaa !15
  br label %195

195:                                              ; preds = %186, %182
  %196 = load i64, ptr %6, align 8, !tbaa !64
  %197 = lshr i64 %196, 8
  store i64 %197, ptr %6, align 8, !tbaa !64
  %198 = load i64, ptr %6, align 8, !tbaa !64
  %199 = load ptr, ptr %4, align 8, !tbaa !47
  %200 = getelementptr inbounds nuw %struct.StateVars, ptr %199, i32 0, i32 4
  %201 = load i8, ptr %200, align 8, !tbaa !49
  %202 = zext i8 %201 to i32
  %203 = zext i32 %202 to i64
  %204 = shl i64 %198, %203
  %205 = load ptr, ptr %4, align 8, !tbaa !47
  %206 = getelementptr inbounds nuw %struct.StateVars, ptr %205, i32 0, i32 5
  %207 = load i64, ptr %206, align 8, !tbaa !51
  %208 = or i64 %207, %204
  store i64 %208, ptr %206, align 8, !tbaa !51
  %209 = load i32, ptr %7, align 4, !tbaa !15
  %210 = load ptr, ptr %4, align 8, !tbaa !47
  %211 = getelementptr inbounds nuw %struct.StateVars, ptr %210, i32 0, i32 4
  %212 = load i8, ptr %211, align 8, !tbaa !49
  %213 = zext i8 %212 to i32
  %214 = add i32 %213, %209
  %215 = trunc i32 %214 to i8
  store i8 %215, ptr %211, align 8, !tbaa !49
  store i32 0, ptr %3, align 4
  store i32 1, ptr %8, align 4
  br label %216

216:                                              ; preds = %195, %25
  call void @llvm.lifetime.end.p0(i64 4, ptr %7) #10
  call void @llvm.lifetime.end.p0(i64 8, ptr %6) #10
  %217 = load i32, ptr %3, align 4
  ret i32 %217
}