; Function Attrs: mustprogress nofree norecurse nosync nounwind willreturn memory(argmem: readwrite) uwtable
define internal fastcc void @jpeg2000_bitbuf_refill_backwards(ptr noundef nonnull captures(none) initializes((12, 16)) %0, ptr noundef readonly captures(none) %1) unnamed_addr #7 {
  %3 = load i32, ptr %0, align 8, !tbaa !40
  %4 = sext i32 %3 to i64
  %5 = getelementptr i8, ptr %1, i64 %4
  %6 = getelementptr i8, ptr %5, i64 1
  %7 = load i8, ptr %6, align 1, !tbaa !34
  %8 = zext i8 %7 to i32
  %9 = getelementptr inbounds nuw i8, ptr %0, i64 12
  store i32 %8, ptr %9, align 4, !tbaa !42
  %10 = getelementptr inbounds nuw i8, ptr %0, i64 16
  %11 = load i8, ptr %10, align 8, !tbaa !41
  %12 = icmp ugt i8 %11, 31
  br i1 %12, label %98, label %13

13:                                               ; preds = %2
  %14 = icmp sgt i32 %3, 2
  br i1 %14, label %15, label %39

15:                                               ; preds = %13
  %16 = zext nneg i32 %3 to i64
  %17 = getelementptr i8, ptr %1, i64 %16
  %18 = getelementptr i8, ptr %17, i64 -3
  %19 = load i8, ptr %18, align 1, !tbaa !34
  %20 = zext i8 %19 to i64
  %21 = getelementptr i8, ptr %17, i64 -2
  %22 = load i8, ptr %21, align 1, !tbaa !34
  %23 = zext i8 %22 to i64
  %24 = shl nuw nsw i64 %20, 16
  %25 = shl nuw nsw i64 %23, 8
  %26 = or disjoint i64 %25, %24
  %27 = getelementptr i8, ptr %17, i64 -1
  %28 = load i8, ptr %27, align 1, !tbaa !34
  %29 = zext i8 %28 to i64
  %30 = or disjoint i64 %26, %29
  %31 = load i8, ptr %17, align 1, !tbaa !34
  %32 = zext i8 %31 to i64
  %33 = shl nuw nsw i64 %30, 16
  %34 = shl nuw nsw i64 %32, 8
  %35 = zext i8 %7 to i64
  %36 = or disjoint i64 %34, %35
  %37 = or disjoint i64 %36, %33
  %38 = add nsw i32 %3, -4
  store i32 %38, ptr %0, align 8, !tbaa !40
  br label %63

39:                                               ; preds = %13
  %40 = icmp eq i32 %3, 2
  br i1 %40, label %.thread, label %44

.thread:                                          ; preds = %39
  %41 = load i8, ptr %1, align 1, !tbaa !34
  %42 = zext i8 %41 to i64
  %43 = shl nuw nsw i64 %42, 8
  br label %.thread67

44:                                               ; preds = %39
  %45 = icmp sgt i32 %3, 0
  br i1 %45, label %.thread67, label %53

.thread67:                                        ; preds = %44, %.thread
  %.15566 = phi i64 [ %43, %.thread ], [ 0, %44 ]
  %46 = zext nneg i32 %3 to i64
  %47 = getelementptr i8, ptr %1, i64 %46
  %48 = getelementptr i8, ptr %47, i64 -1
  %49 = load i8, ptr %48, align 1, !tbaa !34
  %50 = zext i8 %49 to i64
  %51 = or disjoint i64 %.15566, %50
  %52 = shl nuw nsw i64 %51, 8
  br label %._crit_edge

53:                                               ; preds = %44
  %54 = icmp sgt i32 %3, -1
  br i1 %54, label %._crit_edge, label %60

._crit_edge:                                      ; preds = %53, %.thread67
  %.pre-phi = phi i64 [ %46, %.thread67 ], [ 0, %53 ]
  %.25669 = phi i64 [ %52, %.thread67 ], [ 0, %53 ]
  %55 = getelementptr inbounds nuw i8, ptr %1, i64 %.pre-phi
  %56 = load i8, ptr %55, align 1, !tbaa !34
  %57 = zext i8 %56 to i64
  %58 = or disjoint i64 %.25669, %57
  %59 = shl nuw nsw i64 %58, 8
  br label %60

60:                                               ; preds = %._crit_edge, %53
  %.357 = phi i64 [ %59, %._crit_edge ], [ 0, %53 ]
  store i32 0, ptr %0, align 8, !tbaa !40
  %61 = zext i8 %7 to i64
  %62 = or disjoint i64 %.357, %61
  br label %63

63:                                               ; preds = %60, %15
  %.054 = phi i64 [ %37, %15 ], [ %62, %60 ]
  %64 = and i64 %.054, 549739036672
  %65 = icmp samesign ugt i64 %64, 547859988480
  %66 = and i64 %.054, 549755813887
  %spec.select = select i1 %65, i64 %66, i64 %.054
  %spec.select64 = select i1 %65, i8 31, i8 32
  %67 = and i64 %spec.select, 2147418112
  %68 = icmp samesign ugt i64 %67, 2140078080
  br i1 %68, label %69, label %75

69:                                               ; preds = %63
  %70 = and i64 %spec.select, 2147483647
  %71 = lshr i64 %spec.select, 1
  %72 = and i64 %71, 547608330240
  %73 = or disjoint i64 %72, %70
  %74 = add nsw i8 %spec.select64, -1
  br label %75

75:                                               ; preds = %69, %63
  %.5 = phi i64 [ %73, %69 ], [ %spec.select, %63 ]
  %.1 = phi i8 [ %74, %69 ], [ %spec.select64, %63 ]
  %76 = and i64 %.5, 8388352
  %77 = icmp samesign ugt i64 %76, 8359680
  br i1 %77, label %78, label %84

78:                                               ; preds = %75
  %79 = and i64 %.5, 8388607
  %80 = lshr i64 %.5, 1
  %81 = and i64 %80, 549747425280
  %82 = or disjoint i64 %81, %79
  %83 = add nsw i8 %.1, -1
  br label %84

84:                                               ; preds = %78, %75
  %.6 = phi i64 [ %82, %78 ], [ %.5, %75 ]
  %.2 = phi i8 [ %83, %78 ], [ %.1, %75 ]
  %85 = and i64 %.6, 32767
  %86 = icmp samesign ugt i64 %85, 32655
  %87 = lshr i64 %.6, 1
  %88 = and i64 %87, 549755781120
  %89 = or disjoint i64 %88, %85
  %.7 = select i1 %86, i64 %89, i64 %.6
  %90 = sext i1 %86 to i8
  %91 = lshr i64 %.7, 8
  %92 = zext nneg i8 %11 to i64
  %93 = shl nuw nsw i64 %91, %92
  %94 = getelementptr inbounds nuw i8, ptr %0, i64 24
  %95 = load i64, ptr %94, align 8, !tbaa !38
  %96 = or i64 %93, %95
  store i64 %96, ptr %94, align 8, !tbaa !38
  %.3 = add nuw nsw i8 %.2, %11
  %97 = add nsw i8 %.3, %90
  store i8 %97, ptr %10, align 8, !tbaa !41
  br label %98

98:                                               ; preds = %2, %84
  ret void
}